target datalayout = "e-m:e-p270:32:32-p271:32:32-p272:64:64-i64:64-i128:128-f80:128-n8:16:32:64-S128"
target triple = "x86_64-pc-linux-gnu"

%struct.pmix_list_t = type { %struct.pmix_object_t, %struct.pmix_list_item_t, i64 }
%struct.pmix_object_t = type { %union.pthread_mutex_t, ptr, i32, %struct.pmix_tma }
%union.pthread_mutex_t = type { %struct.__pthread_mutex_s }
%struct.__pthread_mutex_s = type { i32, i32, i32, i32, i32, i16, i16, %struct.__pthread_internal_list }
%struct.__pthread_internal_list = type { ptr, ptr }
%struct.pmix_tma = type { ptr, ptr, ptr, ptr, ptr, ptr, ptr, ptr }
%struct.pmix_list_item_t = type { %struct.pmix_object_t, ptr, ptr, i32 }
%struct.pmix_proc = type { [256 x i8], i32 }
%struct.prte_node_t = type { %struct.pmix_list_item_t, i32, ptr, ptr, ptr, ptr, ptr, ptr, i16, ptr, i16, i8, i32, i32, i32, i32, ptr, i8, %struct.pmix_list_t }
%struct.prte_job_t = type { %struct.pmix_list_item_t, i32, ptr, ptr, [256 x i8], ptr, i32, i32, ptr, ptr, i32, i32, i32, i32, ptr, ptr, ptr, i32, i32, i32, i32, i32, i32, i32, %struct.pmix_proc, i32, i16, %struct.pmix_list_t, %struct.pmix_data_buffer, %struct.pmix_list_t, [256 x i8], i32, ptr, %struct.pmix_cli_result_t }
%struct.pmix_data_buffer = type { ptr, ptr, ptr, i64, i64 }
%struct.pmix_cli_result_t = type { %struct.pmix_object_t, %struct.pmix_list_t, ptr }
%struct.pmix_pointer_array_t = type { %struct.pmix_object_t, i32, i32, i32, i32, i32, ptr, ptr }

@.str.8 = private unnamed_addr constant [14 x i8] c"<allocation>\0A\00", align 1
@.str.9 = private unnamed_addr constant [68 x i8] c"\0A======================   ALLOCATED NODES   ======================\0A\00", align 1
@prte_hnp_is_allocated = external global i8, align 1
@prte_node_pool = external global ptr, align 8
@.str.10 = private unnamed_addr constant [62 x i8] c"\09<host name=\22%s\22 slots=\22%d\22 max_slots=\22%d\22 slots_inuse=\22%d\22>\0A\00", align 1
@.str.11 = private unnamed_addr constant [8 x i8] c"UNKNOWN\00", align 1
@.str.12 = private unnamed_addr constant [72 x i8] c"    %s: slots=%d max_slots=%d slots_inuse=%d state=%s\0A\09%s\0A\09aliases: %s\0A\00", align 1
@.str.13 = private unnamed_addr constant [5 x i8] c"NONE\00", align 1
@.str.14 = private unnamed_addr constant [5 x i8] c"%s%s\00", align 1
@.str.15 = private unnamed_addr constant [17 x i8] c"%s</allocation>\0A\00", align 1
@.str.16 = private unnamed_addr constant [69 x i8] c"%s=================================================================\0A\00", align 1

; Function Attrs: inlinehint nounwind uwtable
define internal ptr @pmix_pointer_array_get_item(ptr noundef %0, i32 noundef %1) #4 {
  %3 = alloca ptr, align 8
  %4 = alloca ptr, align 8
  %5 = alloca i32, align 4
  %6 = alloca ptr, align 8
  %7 = alloca i32, align 4
  store ptr %0, ptr %4, align 8, !tbaa !30
  store i32 %1, ptr %5, align 4, !tbaa !29
  call void @llvm.lifetime.start.p0(i64 8, ptr %6) #12
  %8 = load i32, ptr %5, align 4, !tbaa !29
  %9 = icmp sgt i32 0, %8
  br i1 %9, label %16, label %10

10:                                               ; preds = %2
  %11 = load ptr, ptr %4, align 8, !tbaa !30
  %12 = getelementptr inbounds nuw %struct.pmix_pointer_array_t, ptr %11, i32 0, i32 3
  %13 = load i32, ptr %12, align 8, !tbaa !31
  %14 = load i32, ptr %5, align 4, !tbaa !29
  %15 = icmp sle i32 %13, %14
  br label %16

16:                                               ; preds = %10, %2
  %17 = phi i1 [ true, %2 ], [ %15, %10 ]
  %18 = xor i1 %17, true
  %19 = xor i1 %18, true
  %20 = zext i1 %19 to i32
  %21 = sext i32 %20 to i64
  %22 = call i64 @llvm.expect.i64(i64 %21, i64 0)
  %23 = icmp ne i64 %22, 0
  br i1 %23, label %24, label %25

24:                                               ; preds = %16
  store ptr null, ptr %3, align 8
  store i32 1, ptr %7, align 4
  br label %34

25:                                               ; preds = %16
  %26 = load ptr, ptr %4, align 8, !tbaa !30
  %27 = getelementptr inbounds nuw %struct.pmix_pointer_array_t, ptr %26, i32 0, i32 7
  %28 = load ptr, ptr %27, align 8, !tbaa !42
  %29 = load i32, ptr %5, align 4, !tbaa !29
  %30 = sext i32 %29 to i64
  %31 = getelementptr inbounds ptr, ptr %28, i64 %30
  %32 = load ptr, ptr %31, align 8, !tbaa !3
  store ptr %32, ptr %6, align 8, !tbaa !3
  %33 = load ptr, ptr %6, align 8, !tbaa !3
  store ptr %33, ptr %3, align 8
  store i32 1, ptr %7, align 4
  br label %34

34:                                               ; preds = %25, %24
  call void @llvm.lifetime.end.p0(i64 8, ptr %6) #12
  %35 = load ptr, ptr %3, align 8
  ret ptr %35
}

; Function Attrs: nounwind uwtable
define void @prte_ras_base_display_alloc(ptr noundef %0) #0 {
  %2 = alloca ptr, align 8
  %3 = alloca ptr, align 8
  %4 = alloca ptr, align 8
  %5 = alloca ptr, align 8
  %6 = alloca i32, align 4
  %7 = alloca i32, align 4
  %8 = alloca ptr, align 8
  %9 = alloca ptr, align 8
  %10 = alloca ptr, align 8
  %11 = alloca i8, align 1
  %12 = alloca %struct.pmix_proc, align 4
  store ptr %0, ptr %2, align 8, !tbaa !3
  call void @llvm.lifetime.start.p0(i64 8, ptr %3) #12
  store ptr null, ptr %3, align 8, !tbaa !24
  call void @llvm.lifetime.start.p0(i64 8, ptr %4) #12
  call void @llvm.lifetime.start.p0(i64 8, ptr %5) #12
  call void @llvm.lifetime.start.p0(i64 4, ptr %6) #12
  call void @llvm.lifetime.start.p0(i64 4, ptr %7) #12
  call void @llvm.lifetime.start.p0(i64 8, ptr %8) #12
  call void @llvm.lifetime.start.p0(i64 8, ptr %9) #12
  call void @llvm.lifetime.start.p0(i64 8, ptr %10) #12
  call void @llvm.lifetime.start.p0(i64 1, ptr %11) #12
  call void @llvm.lifetime.start.p0(i64 260, ptr %12) #12
  %13 = load ptr, ptr %2, align 8, !tbaa !3
  %14 = getelementptr inbounds nuw %struct.prte_job_t, ptr %13, i32 0, i32 27
  %15 = call zeroext i1 @prte_get_attribute(ptr noundef %14, i16 noundef zeroext 310, ptr noundef null, i16 noundef zeroext 1)
  %16 = zext i1 %15 to i8
  store i8 %16, ptr %11, align 1, !tbaa !25
  %17 = load ptr, ptr %2, align 8, !tbaa !3
  %18 = getelementptr inbounds nuw %struct.prte_job_t, ptr %17, i32 0, i32 4
  %19 = getelementptr inbounds [256 x i8], ptr %18, i64 0, i64 0
  call void @PMIx_Load_procid(ptr noundef %12, ptr noundef %19, i32 noundef -2)
  %20 = load i8, ptr %11, align 1, !tbaa !25, !range !27, !noundef !28
  %21 = trunc i8 %20 to i1
  br i1 %21, label %22, label %24

22:                                               ; preds = %1
  %23 = call i32 (ptr, ptr, ...) @pmix_asprintf(ptr noundef %3, ptr noundef @.str.8)
  br label %26

24:                                               ; preds = %1
  %25 = call i32 (ptr, ptr, ...) @pmix_asprintf(ptr noundef %3, ptr noundef @.str.9)
  br label %26

26:                                               ; preds = %24, %22
  %27 = load i8, ptr @prte_hnp_is_allocated, align 1, !tbaa !25, !range !27, !noundef !28
  %28 = trunc i8 %27 to i1
  br i1 %28, label %29, label %30

29:                                               ; preds = %26
  store i32 0, ptr %7, align 4, !tbaa !29
  br label %31

30:                                               ; preds = %26
  store i32 1, ptr %7, align 4, !tbaa !29
  br label %31

31:                                               ; preds = %30, %29
  %32 = load i32, ptr %7, align 4, !tbaa !29
  store i32 %32, ptr %6, align 4, !tbaa !29
  br label %33

33:                                               ; preds = %136, %31
  %34 = load i32, ptr %6, align 4, !tbaa !29
  %35 = load ptr, ptr @prte_node_pool, align 8, !tbaa !30
  %36 = getelementptr inbounds nuw %struct.pmix_pointer_array_t, ptr %35, i32 0, i32 3
  %37 = load i32, ptr %36, align 8, !tbaa !31
  %38 = icmp slt i32 %34, %37
  br i1 %38, label %39, label %139

39:                                               ; preds = %33
  %40 = load ptr, ptr @prte_node_pool, align 8, !tbaa !30
  %41 = load i32, ptr %6, align 4, !tbaa !29
  %42 = call ptr @pmix_pointer_array_get_item(ptr noundef %40, i32 noundef %41)
  store ptr %42, ptr %8, align 8, !tbaa !3
  %43 = icmp eq ptr null, %42
  br i1 %43, label %44, label %45

44:                                               ; preds = %39
  br label %136

45:                                               ; preds = %39
  %46 = load i8, ptr %11, align 1, !tbaa !25, !range !27, !noundef !28
  %47 = trunc i8 %46 to i1
  br i1 %47, label %48, label %70

48:                                               ; preds = %45
  %49 = load ptr, ptr %8, align 8, !tbaa !3
  %50 = getelementptr inbounds nuw %struct.prte_node_t, ptr %49, i32 0, i32 2
  %51 = load ptr, ptr %50, align 8, !tbaa !34
  %52 = icmp eq ptr null, %51
  br i1 %52, label %53, label %54

53:                                               ; preds = %48
  br label %58

54:                                               ; preds = %48
  %55 = load ptr, ptr %8, align 8, !tbaa !3
  %56 = getelementptr inbounds nuw %struct.prte_node_t, ptr %55, i32 0, i32 2
  %57 = load ptr, ptr %56, align 8, !tbaa !34
  br label %58

58:                                               ; preds = %54, %53
  %59 = phi ptr [ @.str.11, %53 ], [ %57, %54 ]
  %60 = load ptr, ptr %8, align 8, !tbaa !3
  %61 = getelementptr inbounds nuw %struct.prte_node_t, ptr %60, i32 0, i32 12
  %62 = load i32, ptr %61, align 4, !tbaa !35
  %63 = load ptr, ptr %8, align 8, !tbaa !3
  %64 = getelementptr inbounds nuw %struct.prte_node_t, ptr %63, i32 0, i32 15
  %65 = load i32, ptr %64, align 8, !tbaa !36
  %66 = load ptr, ptr %8, align 8, !tbaa !3
  %67 = getelementptr inbounds nuw %struct.prte_node_t, ptr %66, i32 0, i32 14
  %68 = load i32, ptr %67, align 4, !tbaa !37
  %69 = call i32 (ptr, ptr, ...) @pmix_asprintf(ptr noundef %4, ptr noundef @.str.10, ptr noundef %59, i32 noundef %62, i32 noundef %65, i32 noundef %68)
  br label %123

70:                                               ; preds = %45
  %71 = load ptr, ptr %8, align 8, !tbaa !3
  %72 = call ptr @prte_ras_base_flag_string(ptr noundef %71)
  store ptr %72, ptr %9, align 8, !tbaa !24
  %73 = load ptr, ptr %8, align 8, !tbaa !3
  %74 = getelementptr inbounds nuw %struct.prte_node_t, ptr %73, i32 0, i32 4
  %75 = load ptr, ptr %74, align 8, !tbaa !38
  %76 = icmp ne ptr null, %75
  br i1 %76, label %77, label %82

77:                                               ; preds = %70
  %78 = load ptr, ptr %8, align 8, !tbaa !3
  %79 = getelementptr inbounds nuw %struct.prte_node_t, ptr %78, i32 0, i32 4
  %80 = load ptr, ptr %79, align 8, !tbaa !38
  %81 = call ptr @PMIx_Argv_join(ptr noundef %80, i32 noundef 44)
  store ptr %81, ptr %10, align 8, !tbaa !24
  br label %83

82:                                               ; preds = %70
  store ptr null, ptr %10, align 8, !tbaa !24
  br label %83

83:                                               ; preds = %82, %77
  %84 = load ptr, ptr %8, align 8, !tbaa !3
  %85 = getelementptr inbounds nuw %struct.prte_node_t, ptr %84, i32 0, i32 2
  %86 = load ptr, ptr %85, align 8, !tbaa !34
  %87 = icmp eq ptr null, %86
  br i1 %87, label %88, label %89

88:                                               ; preds = %83
  br label %93

89:                                               ; preds = %83
  %90 = load ptr, ptr %8, align 8, !tbaa !3
  %91 = getelementptr inbounds nuw %struct.prte_node_t, ptr %90, i32 0, i32 2
  %92 = load ptr, ptr %91, align 8, !tbaa !34
  br label %93

93:                                               ; preds = %89, %88
  %94 = phi ptr [ @.str.11, %88 ], [ %92, %89 ]
  %95 = load ptr, ptr %8, align 8, !tbaa !3
  %96 = getelementptr inbounds nuw %struct.prte_node_t, ptr %95, i32 0, i32 12
  %97 = load i32, ptr %96, align 4, !tbaa !35
  %98 = load ptr, ptr %8, align 8, !tbaa !3
  %99 = getelementptr inbounds nuw %struct.prte_node_t, ptr %98, i32 0, i32 15
  %100 = load i32, ptr %99, align 8, !tbaa !36
  %101 = load ptr, ptr %8, align 8, !tbaa !3
  %102 = getelementptr inbounds nuw %struct.prte_node_t, ptr %101, i32 0, i32 14
  %103 = load i32, ptr %102, align 4, !tbaa !37
  %104 = load ptr, ptr %8, align 8, !tbaa !3
  %105 = getelementptr inbounds nuw %struct.prte_node_t, ptr %104, i32 0, i32 11
  %106 = load i8, ptr %105, align 2, !tbaa !39
  %107 = call ptr @prte_node_state_to_str(i8 noundef signext %106)
  %108 = load ptr, ptr %9, align 8, !tbaa !24
  %109 = load ptr, ptr %10, align 8, !tbaa !24
  %110 = icmp eq ptr null, %109
  br i1 %110, label %111, label %112

111:                                              ; preds = %93
  br label %114

112:                                              ; preds = %93
  %113 = load ptr, ptr %10, align 8, !tbaa !24
  br label %114

114:                                              ; preds = %112, %111
  %115 = phi ptr [ @.str.13, %111 ], [ %113, %112 ]
  %116 = call i32 (ptr, ptr, ...) @pmix_asprintf(ptr noundef %4, ptr noundef @.str.12, ptr noundef %94, i32 noundef %97, i32 noundef %100, i32 noundef %103, ptr noundef %107, ptr noundef %108, ptr noundef %115)
  %117 = load ptr, ptr %9, align 8, !tbaa !24
  call void @free(ptr noundef %117) #12
  %118 = load ptr, ptr %10, align 8, !tbaa !24
  %119 = icmp ne ptr null, %118
  br i1 %119, label %120, label %122

120:                                              ; preds = %114
  %121 = load ptr, ptr %10, align 8, !tbaa !24
  call void @free(ptr noundef %121) #12
  br label %122

122:                                              ; preds = %120, %114
  br label %123

123:                                              ; preds = %122, %58
  %124 = load ptr, ptr %3, align 8, !tbaa !24
  %125 = icmp eq ptr null, %124
  br i1 %125, label %126, label %128

126:                                              ; preds = %123
  %127 = load ptr, ptr %4, align 8, !tbaa !24
  store ptr %127, ptr %3, align 8, !tbaa !24
  br label %135

128:                                              ; preds = %123
  %129 = load ptr, ptr %3, align 8, !tbaa !24
  %130 = load ptr, ptr %4, align 8, !tbaa !24
  %131 = call i32 (ptr, ptr, ...) @pmix_asprintf(ptr noundef %5, ptr noundef @.str.14, ptr noundef %129, ptr noundef %130)
  %132 = load ptr, ptr %3, align 8, !tbaa !24
  call void @free(ptr noundef %132) #12
  %133 = load ptr, ptr %4, align 8, !tbaa !24
  call void @free(ptr noundef %133) #12
  %134 = load ptr, ptr %5, align 8, !tbaa !24
  store ptr %134, ptr %3, align 8, !tbaa !24
  br label %135

135:                                              ; preds = %128, %126
  br label %136

136:                                              ; preds = %135, %44
  %137 = load i32, ptr %6, align 4, !tbaa !29
  %138 = add nsw i32 %137, 1
  store i32 %138, ptr %6, align 4, !tbaa !29
  br label %33, !llvm.loop !40

139:                                              ; preds = %33
  %140 = load i8, ptr %11, align 1, !tbaa !25, !range !27, !noundef !28
  %141 = trunc i8 %140 to i1
  br i1 %141, label %142, label %145

142:                                              ; preds = %139
  %143 = load ptr, ptr %3, align 8, !tbaa !24
  %144 = call i32 (ptr, ptr, ...) @pmix_asprintf(ptr noundef %4, ptr noundef @.str.15, ptr noundef %143)
  br label %148

145:                                              ; preds = %139
  %146 = load ptr, ptr %3, align 8, !tbaa !24
  %147 = call i32 (ptr, ptr, ...) @pmix_asprintf(ptr noundef %4, ptr noundef @.str.16, ptr noundef %146)
  br label %148

148:                                              ; preds = %145, %142
  %149 = load ptr, ptr %3, align 8, !tbaa !24
  call void @free(ptr noundef %149) #12
  %150 = load ptr, ptr %4, align 8, !tbaa !24
  call void @prte_iof_base_output(ptr noundef %12, i16 noundef zeroext 2, ptr noundef %150)
  call void @llvm.lifetime.end.p0(i64 260, ptr %12) #12
  call void @llvm.lifetime.end.p0(i64 1, ptr %11) #12
  call void @llvm.lifetime.end.p0(i64 8, ptr %10) #12
  call void @llvm.lifetime.end.p0(i64 8, ptr %9) #12
  call void @llvm.lifetime.end.p0(i64 8, ptr %8) #12
  call void @llvm.lifetime.end.p0(i64 4, ptr %7) #12
  call void @llvm.lifetime.end.p0(i64 4, ptr %6) #12
  call void @llvm.lifetime.end.p0(i64 8, ptr %5) #12
  call void @llvm.lifetime.end.p0(i64 8, ptr %4) #12
  call void @llvm.lifetime.end.p0(i64 8, ptr %3) #12
  ret void
}