; Function Attrs: nounwind uwtable
define void @prte_ras_base_display_alloc(ptr noundef %0) local_unnamed_addr #0 {
  %2 = alloca ptr, align 8
  %3 = alloca ptr, align 8
  %4 = alloca ptr, align 8
  %5 = alloca %struct.pmix_proc, align 4
  call void @llvm.lifetime.start.p0(i64 8, ptr nonnull %2) #15
  store ptr null, ptr %2, align 8, !tbaa !23
  call void @llvm.lifetime.start.p0(i64 8, ptr nonnull %3) #15
  call void @llvm.lifetime.start.p0(i64 8, ptr nonnull %4) #15
  call void @llvm.lifetime.start.p0(i64 260, ptr nonnull %5) #15
  %6 = getelementptr inbounds nuw i8, ptr %0, i64 792
  %7 = tail call zeroext i1 @prte_get_attribute(ptr noundef nonnull %6, i16 noundef zeroext 310, ptr noundef null, i16 noundef zeroext 1) #15
  %8 = getelementptr inbounds nuw i8, ptr %0, i64 168
  call void @PMIx_Load_procid(ptr noundef nonnull %5, ptr noundef nonnull %8, i32 noundef -2) #15
  br i1 %7, label %9, label %.thread

9:                                                ; preds = %1
  %10 = call i32 (ptr, ptr, ...) @pmix_asprintf(ptr noundef nonnull %2, ptr noundef nonnull @.str.8) #15
  %11 = load i8, ptr @prte_hnp_is_allocated, align 1, !tbaa !24, !range !26, !noundef !27
  %12 = xor i8 %11, 1
  %not. = zext nneg i8 %12 to i32
  %13 = load ptr, ptr @prte_node_pool, align 8, !tbaa !28
  %14 = getelementptr inbounds nuw i8, ptr %13, i64 128
  %15 = load i32, ptr %14, align 8, !tbaa !29
  %16 = icmp sgt i32 %15, %not.
  br i1 %16, label %pmix_pointer_array_get_item.exit.us.preheader, label %._crit_edge.thread44

.thread:                                          ; preds = %1
  %17 = call i32 (ptr, ptr, ...) @pmix_asprintf(ptr noundef nonnull %2, ptr noundef nonnull @.str.9) #15
  %18 = load i8, ptr @prte_hnp_is_allocated, align 1, !tbaa !24, !range !26, !noundef !27
  %19 = xor i8 %18, 1
  %not.43 = zext nneg i8 %19 to i32
  %20 = load ptr, ptr @prte_node_pool, align 8, !tbaa !28
  %21 = getelementptr inbounds nuw i8, ptr %20, i64 128
  %22 = load i32, ptr %21, align 8, !tbaa !29
  %23 = icmp sgt i32 %22, %not.43
  br i1 %23, label %pmix_pointer_array_get_item.exit.preheader, label %._crit_edge.thread

pmix_pointer_array_get_item.exit.preheader:       ; preds = %.thread
  %24 = zext nneg i8 %19 to i64
  br label %pmix_pointer_array_get_item.exit

pmix_pointer_array_get_item.exit.us.preheader:    ; preds = %9
  %25 = zext nneg i8 %12 to i64
  br label %pmix_pointer_array_get_item.exit.us

pmix_pointer_array_get_item.exit.us:              ; preds = %pmix_pointer_array_get_item.exit.us.preheader, %51
  %indvars.iv40 = phi i64 [ %25, %pmix_pointer_array_get_item.exit.us.preheader ], [ %indvars.iv.next41, %51 ]
  %26 = phi ptr [ %13, %pmix_pointer_array_get_item.exit.us.preheader ], [ %52, %51 ]
  %27 = getelementptr inbounds nuw i8, ptr %26, i64 152
  %28 = load ptr, ptr %27, align 8, !tbaa !32
  %29 = getelementptr inbounds nuw ptr, ptr %28, i64 %indvars.iv40
  %30 = load ptr, ptr %29, align 8, !tbaa !33
  %31 = icmp eq ptr %30, null
  br i1 %31, label %51, label %32

32:                                               ; preds = %pmix_pointer_array_get_item.exit.us
  %33 = getelementptr inbounds nuw i8, ptr %30, i64 152
  %34 = load ptr, ptr %33, align 8, !tbaa !34
  %35 = icmp eq ptr %34, null
  %spec.select.us = select i1 %35, ptr @.str.11, ptr %34
  %36 = getelementptr inbounds nuw i8, ptr %30, i64 220
  %37 = load i32, ptr %36, align 4, !tbaa !35
  %38 = getelementptr inbounds nuw i8, ptr %30, i64 232
  %39 = load i32, ptr %38, align 8, !tbaa !36
  %40 = getelementptr inbounds nuw i8, ptr %30, i64 228
  %41 = load i32, ptr %40, align 4, !tbaa !37
  %42 = call i32 (ptr, ptr, ...) @pmix_asprintf(ptr noundef nonnull %3, ptr noundef nonnull @.str.10, ptr noundef nonnull %spec.select.us, i32 noundef %37, i32 noundef %39, i32 noundef %41) #15
  %43 = load ptr, ptr %2, align 8, !tbaa !23
  %44 = icmp eq ptr %43, null
  %45 = load ptr, ptr %3, align 8, !tbaa !23
  br i1 %44, label %.sink.split, label %46

46:                                               ; preds = %32
  %47 = call i32 (ptr, ptr, ...) @pmix_asprintf(ptr noundef nonnull %4, ptr noundef nonnull @.str.14, ptr noundef nonnull %43, ptr noundef %45) #15
  %48 = load ptr, ptr %2, align 8, !tbaa !23
  call void @free(ptr noundef %48) #15
  %49 = load ptr, ptr %3, align 8, !tbaa !23
  call void @free(ptr noundef %49) #15
  %50 = load ptr, ptr %4, align 8, !tbaa !23
  br label %.sink.split

.sink.split:                                      ; preds = %32, %46
  %.sink = phi ptr [ %50, %46 ], [ %45, %32 ]
  store ptr %.sink, ptr %2, align 8, !tbaa !23
  br label %51

51:                                               ; preds = %.sink.split, %pmix_pointer_array_get_item.exit.us
  %indvars.iv.next41 = add nuw nsw i64 %indvars.iv40, 1
  %52 = load ptr, ptr @prte_node_pool, align 8, !tbaa !28
  %53 = getelementptr inbounds nuw i8, ptr %52, i64 128
  %54 = load i32, ptr %53, align 8, !tbaa !29
  %55 = trunc nuw i64 %indvars.iv.next41 to i32
  %56 = icmp sgt i32 %54, %55
  br i1 %56, label %pmix_pointer_array_get_item.exit.us, label %._crit_edge, !llvm.loop !38

pmix_pointer_array_get_item.exit:                 ; preds = %pmix_pointer_array_get_item.exit.preheader, %95
  %indvars.iv = phi i64 [ %24, %pmix_pointer_array_get_item.exit.preheader ], [ %indvars.iv.next, %95 ]
  %57 = phi ptr [ %20, %pmix_pointer_array_get_item.exit.preheader ], [ %96, %95 ]
  %58 = getelementptr inbounds nuw i8, ptr %57, i64 152
  %59 = load ptr, ptr %58, align 8, !tbaa !32
  %60 = getelementptr inbounds nuw ptr, ptr %59, i64 %indvars.iv
  %61 = load ptr, ptr %60, align 8, !tbaa !33
  %62 = icmp eq ptr %61, null
  br i1 %62, label %95, label %63

63:                                               ; preds = %pmix_pointer_array_get_item.exit
  %64 = call ptr @prte_ras_base_flag_string(ptr noundef nonnull %61)
  %65 = getelementptr inbounds nuw i8, ptr %61, i64 168
  %66 = load ptr, ptr %65, align 8, !tbaa !40
  %.not = icmp eq ptr %66, null
  br i1 %.not, label %69, label %67

67:                                               ; preds = %63
  %68 = call ptr @PMIx_Argv_join(ptr noundef nonnull %66, i32 noundef 44) #15
  br label %69

69:                                               ; preds = %63, %67
  %.028 = phi ptr [ %68, %67 ], [ null, %63 ]
  %70 = getelementptr inbounds nuw i8, ptr %61, i64 152
  %71 = load ptr, ptr %70, align 8, !tbaa !34
  %72 = icmp eq ptr %71, null
  %spec.select36 = select i1 %72, ptr @.str.11, ptr %71
  %73 = getelementptr inbounds nuw i8, ptr %61, i64 220
  %74 = load i32, ptr %73, align 4, !tbaa !35
  %75 = getelementptr inbounds nuw i8, ptr %61, i64 232
  %76 = load i32, ptr %75, align 8, !tbaa !36
  %77 = getelementptr inbounds nuw i8, ptr %61, i64 228
  %78 = load i32, ptr %77, align 4, !tbaa !37
  %79 = getelementptr inbounds nuw i8, ptr %61, i64 218
  %80 = load i8, ptr %79, align 2, !tbaa !41
  %81 = call ptr @prte_node_state_to_str(i8 noundef signext %80) #15
  %82 = icmp eq ptr %.028, null
  %83 = select i1 %82, ptr @.str.13, ptr %.028
  %84 = call i32 (ptr, ptr, ...) @pmix_asprintf(ptr noundef nonnull %3, ptr noundef nonnull @.str.12, ptr noundef nonnull %spec.select36, i32 noundef %74, i32 noundef %76, i32 noundef %78, ptr noundef %81, ptr noundef %64, ptr noundef nonnull %83) #15
  call void @free(ptr noundef %64) #15
  br i1 %82, label %86, label %85

85:                                               ; preds = %69
  call void @free(ptr noundef nonnull %.028) #15
  br label %86

86:                                               ; preds = %69, %85
  %87 = load ptr, ptr %2, align 8, !tbaa !23
  %88 = icmp eq ptr %87, null
  %89 = load ptr, ptr %3, align 8, !tbaa !23
  br i1 %88, label %.sink.split46, label %90

90:                                               ; preds = %86
  %91 = call i32 (ptr, ptr, ...) @pmix_asprintf(ptr noundef nonnull %4, ptr noundef nonnull @.str.14, ptr noundef nonnull %87, ptr noundef %89) #15
  %92 = load ptr, ptr %2, align 8, !tbaa !23
  call void @free(ptr noundef %92) #15
  %93 = load ptr, ptr %3, align 8, !tbaa !23
  call void @free(ptr noundef %93) #15
  %94 = load ptr, ptr %4, align 8, !tbaa !23
  br label %.sink.split46

.sink.split46:                                    ; preds = %86, %90
  %.sink47 = phi ptr [ %94, %90 ], [ %89, %86 ]
  store ptr %.sink47, ptr %2, align 8, !tbaa !23
  br label %95

95:                                               ; preds = %.sink.split46, %pmix_pointer_array_get_item.exit
  %indvars.iv.next = add nuw nsw i64 %indvars.iv, 1
  %96 = load ptr, ptr @prte_node_pool, align 8, !tbaa !28
  %97 = getelementptr inbounds nuw i8, ptr %96, i64 128
  %98 = load i32, ptr %97, align 8, !tbaa !29
  %99 = trunc nuw i64 %indvars.iv.next to i32
  %100 = icmp sgt i32 %98, %99
  br i1 %100, label %pmix_pointer_array_get_item.exit, label %._crit_edge, !llvm.loop !38

._crit_edge:                                      ; preds = %95, %51
  br i1 %7, label %._crit_edge.thread44, label %._crit_edge.thread

._crit_edge.thread:                               ; preds = %.thread, %._crit_edge
  br label %._crit_edge.thread44

._crit_edge.thread44:                             ; preds = %._crit_edge, %9, %._crit_edge.thread
  %.str.16.sink = phi ptr [ @.str.16, %._crit_edge.thread ], [ @.str.15, %9 ], [ @.str.15, %._crit_edge ]
  %101 = load ptr, ptr %2, align 8, !tbaa !23
  %102 = call i32 (ptr, ptr, ...) @pmix_asprintf(ptr noundef nonnull %3, ptr noundef nonnull %.str.16.sink, ptr noundef %101) #15
  %103 = load ptr, ptr %2, align 8, !tbaa !23
  call void @free(ptr noundef %103) #15
  %104 = load ptr, ptr %3, align 8, !tbaa !23
  call void @prte_iof_base_output(ptr noundef nonnull %5, i16 noundef zeroext 2, ptr noundef %104) #15
  call void @llvm.lifetime.end.p0(i64 260, ptr nonnull %5) #15
  call void @llvm.lifetime.end.p0(i64 8, ptr nonnull %4) #15
  call void @llvm.lifetime.end.p0(i64 8, ptr nonnull %3) #15
  call void @llvm.lifetime.end.p0(i64 8, ptr nonnull %2) #15
  ret void
}